; Function Attrs: mustprogress nounwind uwtable
define hidden void @_ZN4cvc58internal11LazyCDProofD2Ev(ptr noundef nonnull align 8 dereferenceable(408) %this) unnamed_addr #4 align 2 {
entry:
  store ptr getelementptr inbounds ({ [6 x ptr], [8 x ptr] }, ptr @_ZTVN4cvc58internal11LazyCDProofE, i64 0, i32 0, i64 2), ptr %this, align 8
  %add.ptr = getelementptr inbounds i8, ptr %this, i64 16
  store ptr getelementptr inbounds ({ [6 x ptr], [8 x ptr] }, ptr @_ZTVN4cvc58internal11LazyCDProofE, i64 0, i32 1, i64 2), ptr %add.ptr, align 8
  %d_allVisited = getelementptr inbounds i8, ptr %this, i64 352
  tail call void @_ZN4cvc57context15CDInsertHashMapIPNS_8internal9ProofNodeEbSt4hashIS4_EED2Ev(ptr noundef nonnull align 8 dereferenceable(56) %d_allVisited) #20
  %d_gens = getelementptr inbounds i8, ptr %this, i64 224
  tail call void @_ZN4cvc57context9CDHashMapINS_8internal12NodeTemplateILb1EEEPNS2_14ProofGeneratorESt4hashIS4_EED2Ev(ptr noundef nonnull align 8 dereferenceable(112) %d_gens) #20
  tail call void @_ZN4cvc58internal7CDProofD2Ev(ptr noundef nonnull align 8 dereferenceable(217) %this) #20
  ret void
}